target datalayout = "e-m:e-p270:32:32-p271:32:32-p272:64:64-i64:64-i128:128-f80:128-n8:16:32:64-S128"
target triple = "x86_64-pc-linux-gnu"

%struct.b64_struct = type { i32, i32, i32, i32, i32, i32, i32, ptr, [1502 x i8], [1024 x i8] }

@.str.3 = private unnamed_addr constant [32 x i8] c"../openssl/crypto/evp/bio_b64.c\00", align 1
@.str.5 = private unnamed_addr constant [47 x i8] c"assertion failed: ctx->buf_len >= ctx->buf_off\00", align 1

; Function Attrs: nounwind uwtable
define internal i64 @b64_ctrl(ptr noundef %0, i32 noundef %1, i64 noundef %2, ptr noundef %3) #0 {
  %5 = alloca i64, align 8
  %6 = alloca ptr, align 8
  %7 = alloca i32, align 4
  %8 = alloca i64, align 8
  %9 = alloca ptr, align 8
  %10 = alloca ptr, align 8
  %11 = alloca i64, align 8
  %12 = alloca i32, align 4
  %13 = alloca ptr, align 8
  %14 = alloca i32, align 4
  store ptr %0, ptr %6, align 8, !tbaa !3
  store i32 %1, ptr %7, align 4, !tbaa !10
  store i64 %2, ptr %8, align 8, !tbaa !33
  store ptr %3, ptr %9, align 8, !tbaa !35
  call void @llvm.lifetime.start.p0(i64 8, ptr %10) #6
  call void @llvm.lifetime.start.p0(i64 8, ptr %11) #6
  store i64 1, ptr %11, align 8, !tbaa !33
  call void @llvm.lifetime.start.p0(i64 4, ptr %12) #6
  call void @llvm.lifetime.start.p0(i64 8, ptr %13) #6
  %15 = load ptr, ptr %6, align 8, !tbaa !3
  %16 = call ptr @BIO_get_data(ptr noundef %15)
  store ptr %16, ptr %10, align 8, !tbaa !12
  %17 = load ptr, ptr %6, align 8, !tbaa !3
  %18 = call ptr @BIO_next(ptr noundef %17)
  store ptr %18, ptr %13, align 8, !tbaa !3
  %19 = load ptr, ptr %10, align 8, !tbaa !12
  %20 = icmp eq ptr %19, null
  br i1 %20, label %24, label %21

21:                                               ; preds = %4
  %22 = load ptr, ptr %13, align 8, !tbaa !3
  %23 = icmp eq ptr %22, null
  br i1 %23, label %24, label %25

24:                                               ; preds = %21, %4
  store i64 0, ptr %5, align 8
  store i32 1, ptr %14, align 4
  br label %220

25:                                               ; preds = %21
  %26 = load i32, ptr %7, align 4, !tbaa !10
  switch i32 %26, label %212 [
    i32 1, label %27
    i32 2, label %39
    i32 13, label %52
    i32 10, label %97
    i32 11, label %126
    i32 101, label %203
    i32 12, label %218
    i32 3, label %211
    i32 5, label %211
    i32 4, label %211
  ]

27:                                               ; preds = %25
  %28 = load ptr, ptr %10, align 8, !tbaa !12
  %29 = getelementptr inbounds nuw %struct.b64_struct, ptr %28, i32 0, i32 6
  store i32 1, ptr %29, align 8, !tbaa !25
  %30 = load ptr, ptr %10, align 8, !tbaa !12
  %31 = getelementptr inbounds nuw %struct.b64_struct, ptr %30, i32 0, i32 5
  store i32 1, ptr %31, align 4, !tbaa !26
  %32 = load ptr, ptr %10, align 8, !tbaa !12
  %33 = getelementptr inbounds nuw %struct.b64_struct, ptr %32, i32 0, i32 4
  store i32 0, ptr %33, align 8, !tbaa !14
  %34 = load ptr, ptr %13, align 8, !tbaa !3
  %35 = load i32, ptr %7, align 4, !tbaa !10
  %36 = load i64, ptr %8, align 8, !tbaa !33
  %37 = load ptr, ptr %9, align 8, !tbaa !35
  %38 = call i64 @BIO_ctrl(ptr noundef %34, i32 noundef %35, i64 noundef %36, ptr noundef %37)
  store i64 %38, ptr %11, align 8, !tbaa !33
  br label %218

39:                                               ; preds = %25
  %40 = load ptr, ptr %10, align 8, !tbaa !12
  %41 = getelementptr inbounds nuw %struct.b64_struct, ptr %40, i32 0, i32 6
  %42 = load i32, ptr %41, align 8, !tbaa !25
  %43 = icmp sle i32 %42, 0
  br i1 %43, label %44, label %45

44:                                               ; preds = %39
  store i64 1, ptr %11, align 8, !tbaa !33
  br label %51

45:                                               ; preds = %39
  %46 = load ptr, ptr %13, align 8, !tbaa !3
  %47 = load i32, ptr %7, align 4, !tbaa !10
  %48 = load i64, ptr %8, align 8, !tbaa !33
  %49 = load ptr, ptr %9, align 8, !tbaa !35
  %50 = call i64 @BIO_ctrl(ptr noundef %46, i32 noundef %47, i64 noundef %48, ptr noundef %49)
  store i64 %50, ptr %11, align 8, !tbaa !33
  br label %51

51:                                               ; preds = %45, %44
  br label %218

52:                                               ; preds = %25
  %53 = load ptr, ptr %10, align 8, !tbaa !12
  %54 = getelementptr inbounds nuw %struct.b64_struct, ptr %53, i32 0, i32 0
  %55 = load i32, ptr %54, align 8, !tbaa !17
  %56 = load ptr, ptr %10, align 8, !tbaa !12
  %57 = getelementptr inbounds nuw %struct.b64_struct, ptr %56, i32 0, i32 1
  %58 = load i32, ptr %57, align 4, !tbaa !18
  %59 = icmp sge i32 %55, %58
  br i1 %59, label %60, label %61

60:                                               ; preds = %52
  br label %63

61:                                               ; preds = %52
  call void @OPENSSL_die(ptr noundef @.str.5, ptr noundef @.str.3, i32 noundef 460) #7
  unreachable

62:                                               ; No predecessors!
  br label %63

63:                                               ; preds = %62, %60
  %64 = load ptr, ptr %10, align 8, !tbaa !12
  %65 = getelementptr inbounds nuw %struct.b64_struct, ptr %64, i32 0, i32 0
  %66 = load i32, ptr %65, align 8, !tbaa !17
  %67 = load ptr, ptr %10, align 8, !tbaa !12
  %68 = getelementptr inbounds nuw %struct.b64_struct, ptr %67, i32 0, i32 1
  %69 = load i32, ptr %68, align 4, !tbaa !18
  %70 = sub nsw i32 %66, %69
  %71 = sext i32 %70 to i64
  store i64 %71, ptr %11, align 8, !tbaa !33
  %72 = load i64, ptr %11, align 8, !tbaa !33
  %73 = icmp eq i64 %72, 0
  br i1 %73, label %74, label %86

74:                                               ; preds = %63
  %75 = load ptr, ptr %10, align 8, !tbaa !12
  %76 = getelementptr inbounds nuw %struct.b64_struct, ptr %75, i32 0, i32 4
  %77 = load i32, ptr %76, align 8, !tbaa !14
  %78 = icmp ne i32 %77, 0
  br i1 %78, label %79, label %86

79:                                               ; preds = %74
  %80 = load ptr, ptr %10, align 8, !tbaa !12
  %81 = getelementptr inbounds nuw %struct.b64_struct, ptr %80, i32 0, i32 7
  %82 = load ptr, ptr %81, align 8, !tbaa !20
  %83 = call i32 @EVP_ENCODE_CTX_num(ptr noundef %82)
  %84 = icmp ne i32 %83, 0
  br i1 %84, label %85, label %86

85:                                               ; preds = %79
  store i64 1, ptr %11, align 8, !tbaa !33
  br label %96

86:                                               ; preds = %79, %74, %63
  %87 = load i64, ptr %11, align 8, !tbaa !33
  %88 = icmp sle i64 %87, 0
  br i1 %88, label %89, label %95

89:                                               ; preds = %86
  %90 = load ptr, ptr %13, align 8, !tbaa !3
  %91 = load i32, ptr %7, align 4, !tbaa !10
  %92 = load i64, ptr %8, align 8, !tbaa !33
  %93 = load ptr, ptr %9, align 8, !tbaa !35
  %94 = call i64 @BIO_ctrl(ptr noundef %90, i32 noundef %91, i64 noundef %92, ptr noundef %93)
  store i64 %94, ptr %11, align 8, !tbaa !33
  br label %95

95:                                               ; preds = %89, %86
  br label %96

96:                                               ; preds = %95, %85
  br label %218

97:                                               ; preds = %25
  %98 = load ptr, ptr %10, align 8, !tbaa !12
  %99 = getelementptr inbounds nuw %struct.b64_struct, ptr %98, i32 0, i32 0
  %100 = load i32, ptr %99, align 8, !tbaa !17
  %101 = load ptr, ptr %10, align 8, !tbaa !12
  %102 = getelementptr inbounds nuw %struct.b64_struct, ptr %101, i32 0, i32 1
  %103 = load i32, ptr %102, align 4, !tbaa !18
  %104 = icmp sge i32 %100, %103
  br i1 %104, label %105, label %106

105:                                              ; preds = %97
  br label %108

106:                                              ; preds = %97
  call void @OPENSSL_die(ptr noundef @.str.5, ptr noundef @.str.3, i32 noundef 469) #7
  unreachable

107:                                              ; No predecessors!
  br label %108

108:                                              ; preds = %107, %105
  %109 = load ptr, ptr %10, align 8, !tbaa !12
  %110 = getelementptr inbounds nuw %struct.b64_struct, ptr %109, i32 0, i32 0
  %111 = load i32, ptr %110, align 8, !tbaa !17
  %112 = load ptr, ptr %10, align 8, !tbaa !12
  %113 = getelementptr inbounds nuw %struct.b64_struct, ptr %112, i32 0, i32 1
  %114 = load i32, ptr %113, align 4, !tbaa !18
  %115 = sub nsw i32 %111, %114
  %116 = sext i32 %115 to i64
  store i64 %116, ptr %11, align 8, !tbaa !33
  %117 = load i64, ptr %11, align 8, !tbaa !33
  %118 = icmp sle i64 %117, 0
  br i1 %118, label %119, label %125

119:                                              ; preds = %108
  %120 = load ptr, ptr %13, align 8, !tbaa !3
  %121 = load i32, ptr %7, align 4, !tbaa !10
  %122 = load i64, ptr %8, align 8, !tbaa !33
  %123 = load ptr, ptr %9, align 8, !tbaa !35
  %124 = call i64 @BIO_ctrl(ptr noundef %120, i32 noundef %121, i64 noundef %122, ptr noundef %123)
  store i64 %124, ptr %11, align 8, !tbaa !33
  br label %125

125:                                              ; preds = %119, %108
  br label %218

126:                                              ; preds = %25
  br label %127

127:                                              ; preds = %184, %155, %126
  br label %128

128:                                              ; preds = %144, %127
  %129 = load ptr, ptr %10, align 8, !tbaa !12
  %130 = getelementptr inbounds nuw %struct.b64_struct, ptr %129, i32 0, i32 0
  %131 = load i32, ptr %130, align 8, !tbaa !17
  %132 = load ptr, ptr %10, align 8, !tbaa !12
  %133 = getelementptr inbounds nuw %struct.b64_struct, ptr %132, i32 0, i32 1
  %134 = load i32, ptr %133, align 4, !tbaa !18
  %135 = icmp ne i32 %131, %134
  br i1 %135, label %136, label %145

136:                                              ; preds = %128
  %137 = load ptr, ptr %6, align 8, !tbaa !3
  %138 = call i32 @b64_write(ptr noundef %137, ptr noundef null, i32 noundef 0)
  store i32 %138, ptr %12, align 4, !tbaa !10
  %139 = load i32, ptr %12, align 4, !tbaa !10
  %140 = icmp slt i32 %139, 0
  br i1 %140, label %141, label %144

141:                                              ; preds = %136
  %142 = load i32, ptr %12, align 4, !tbaa !10
  %143 = sext i32 %142 to i64
  store i64 %143, ptr %5, align 8
  store i32 1, ptr %14, align 4
  br label %220

144:                                              ; preds = %136
  br label %128, !llvm.loop !36

145:                                              ; preds = %128
  %146 = load ptr, ptr %6, align 8, !tbaa !3
  %147 = call i32 @BIO_test_flags(ptr noundef %146, i32 noundef -1)
  %148 = and i32 %147, 256
  %149 = icmp ne i32 %148, 0
  br i1 %149, label %150, label %173

150:                                              ; preds = %145
  %151 = load ptr, ptr %10, align 8, !tbaa !12
  %152 = getelementptr inbounds nuw %struct.b64_struct, ptr %151, i32 0, i32 2
  %153 = load i32, ptr %152, align 8, !tbaa !19
  %154 = icmp ne i32 %153, 0
  br i1 %154, label %155, label %172

155:                                              ; preds = %150
  %156 = load ptr, ptr %10, align 8, !tbaa !12
  %157 = getelementptr inbounds nuw %struct.b64_struct, ptr %156, i32 0, i32 8
  %158 = getelementptr inbounds [1502 x i8], ptr %157, i64 0, i64 0
  %159 = load ptr, ptr %10, align 8, !tbaa !12
  %160 = getelementptr inbounds nuw %struct.b64_struct, ptr %159, i32 0, i32 9
  %161 = getelementptr inbounds [1024 x i8], ptr %160, i64 0, i64 0
  %162 = load ptr, ptr %10, align 8, !tbaa !12
  %163 = getelementptr inbounds nuw %struct.b64_struct, ptr %162, i32 0, i32 2
  %164 = load i32, ptr %163, align 8, !tbaa !19
  %165 = call i32 @EVP_EncodeBlock(ptr noundef %158, ptr noundef %161, i32 noundef %164)
  %166 = load ptr, ptr %10, align 8, !tbaa !12
  %167 = getelementptr inbounds nuw %struct.b64_struct, ptr %166, i32 0, i32 0
  store i32 %165, ptr %167, align 8, !tbaa !17
  %168 = load ptr, ptr %10, align 8, !tbaa !12
  %169 = getelementptr inbounds nuw %struct.b64_struct, ptr %168, i32 0, i32 1
  store i32 0, ptr %169, align 4, !tbaa !18
  %170 = load ptr, ptr %10, align 8, !tbaa !12
  %171 = getelementptr inbounds nuw %struct.b64_struct, ptr %170, i32 0, i32 2
  store i32 0, ptr %171, align 8, !tbaa !19
  br label %127

172:                                              ; preds = %150
  br label %196

173:                                              ; preds = %145
  %174 = load ptr, ptr %10, align 8, !tbaa !12
  %175 = getelementptr inbounds nuw %struct.b64_struct, ptr %174, i32 0, i32 4
  %176 = load i32, ptr %175, align 8, !tbaa !14
  %177 = icmp ne i32 %176, 0
  br i1 %177, label %178, label %195

178:                                              ; preds = %173
  %179 = load ptr, ptr %10, align 8, !tbaa !12
  %180 = getelementptr inbounds nuw %struct.b64_struct, ptr %179, i32 0, i32 7
  %181 = load ptr, ptr %180, align 8, !tbaa !20
  %182 = call i32 @EVP_ENCODE_CTX_num(ptr noundef %181)
  %183 = icmp ne i32 %182, 0
  br i1 %183, label %184, label %195

184:                                              ; preds = %178
  %185 = load ptr, ptr %10, align 8, !tbaa !12
  %186 = getelementptr inbounds nuw %struct.b64_struct, ptr %185, i32 0, i32 1
  store i32 0, ptr %186, align 4, !tbaa !18
  %187 = load ptr, ptr %10, align 8, !tbaa !12
  %188 = getelementptr inbounds nuw %struct.b64_struct, ptr %187, i32 0, i32 7
  %189 = load ptr, ptr %188, align 8, !tbaa !20
  %190 = load ptr, ptr %10, align 8, !tbaa !12
  %191 = getelementptr inbounds nuw %struct.b64_struct, ptr %190, i32 0, i32 8
  %192 = getelementptr inbounds [1502 x i8], ptr %191, i64 0, i64 0
  %193 = load ptr, ptr %10, align 8, !tbaa !12
  %194 = getelementptr inbounds nuw %struct.b64_struct, ptr %193, i32 0, i32 0
  call void @EVP_EncodeFinal(ptr noundef %189, ptr noundef %192, ptr noundef %194)
  br label %127

195:                                              ; preds = %178, %173
  br label %196

196:                                              ; preds = %195, %172
  %197 = load ptr, ptr %13, align 8, !tbaa !3
  %198 = load i32, ptr %7, align 4, !tbaa !10
  %199 = load i64, ptr %8, align 8, !tbaa !33
  %200 = load ptr, ptr %9, align 8, !tbaa !35
  %201 = call i64 @BIO_ctrl(ptr noundef %197, i32 noundef %198, i64 noundef %199, ptr noundef %200)
  store i64 %201, ptr %11, align 8, !tbaa !33
  %202 = load ptr, ptr %6, align 8, !tbaa !3
  call void @BIO_copy_next_retry(ptr noundef %202)
  br label %218

203:                                              ; preds = %25
  %204 = load ptr, ptr %6, align 8, !tbaa !3
  call void @BIO_clear_flags(ptr noundef %204, i32 noundef 15)
  %205 = load ptr, ptr %13, align 8, !tbaa !3
  %206 = load i32, ptr %7, align 4, !tbaa !10
  %207 = load i64, ptr %8, align 8, !tbaa !33
  %208 = load ptr, ptr %9, align 8, !tbaa !35
  %209 = call i64 @BIO_ctrl(ptr noundef %205, i32 noundef %206, i64 noundef %207, ptr noundef %208)
  store i64 %209, ptr %11, align 8, !tbaa !33
  %210 = load ptr, ptr %6, align 8, !tbaa !3
  call void @BIO_copy_next_retry(ptr noundef %210)
  br label %218

211:                                              ; preds = %25, %25, %25
  br label %212

212:                                              ; preds = %25, %211
  %213 = load ptr, ptr %13, align 8, !tbaa !3
  %214 = load i32, ptr %7, align 4, !tbaa !10
  %215 = load i64, ptr %8, align 8, !tbaa !33
  %216 = load ptr, ptr %9, align 8, !tbaa !35
  %217 = call i64 @BIO_ctrl(ptr noundef %213, i32 noundef %214, i64 noundef %215, ptr noundef %216)
  store i64 %217, ptr %11, align 8, !tbaa !33
  br label %218

218:                                              ; preds = %212, %25, %203, %196, %125, %96, %51, %27
  %219 = load i64, ptr %11, align 8, !tbaa !33
  store i64 %219, ptr %5, align 8
  store i32 1, ptr %14, align 4
  br label %220

220:                                              ; preds = %218, %141, %24
  call void @llvm.lifetime.end.p0(i64 8, ptr %13) #6
  call void @llvm.lifetime.end.p0(i64 4, ptr %12) #6
  call void @llvm.lifetime.end.p0(i64 8, ptr %11) #6
  call void @llvm.lifetime.end.p0(i64 8, ptr %10) #6
  %221 = load i64, ptr %5, align 8
  ret i64 %221
}