; Function Attrs: nounwind uwtable
define internal i64 @b64_ctrl(ptr noundef %0, i32 noundef %1, i64 noundef %2, ptr noundef %3) #2 {
  %5 = tail call ptr @BIO_get_data(ptr noundef %0) #8
  %6 = tail call ptr @BIO_next(ptr noundef %0) #8
  %7 = icmp eq ptr %5, null
  %8 = icmp eq ptr %6, null
  %or.cond = select i1 %7, i1 true, i1 %8
  br i1 %or.cond, label %84, label %9

9:                                                ; preds = %4
  switch i32 %1, label %82 [
    i32 1, label %16
    i32 2, label %21
    i32 13, label %27
    i32 10, label %46
    i32 11, label %.preheader
    i32 101, label %80
    i32 12, label %84
  ]

.preheader:                                       ; preds = %9
  %10 = getelementptr inbounds nuw i8, ptr %5, i64 4
  %11 = getelementptr inbounds nuw i8, ptr %5, i64 8
  %12 = getelementptr inbounds nuw i8, ptr %5, i64 40
  %13 = getelementptr inbounds nuw i8, ptr %5, i64 1542
  %14 = getelementptr inbounds nuw i8, ptr %5, i64 16
  %15 = getelementptr inbounds nuw i8, ptr %5, i64 32
  br label %.backedge

16:                                               ; preds = %9
  %17 = getelementptr inbounds nuw i8, ptr %5, i64 24
  store i32 1, ptr %17, align 8, !tbaa !18
  %18 = getelementptr inbounds nuw i8, ptr %5, i64 20
  store i32 1, ptr %18, align 4, !tbaa !19
  %19 = getelementptr inbounds nuw i8, ptr %5, i64 16
  store i32 0, ptr %19, align 8, !tbaa !3
  %20 = tail call i64 @BIO_ctrl(ptr noundef nonnull %6, i32 noundef 1, i64 noundef %2, ptr noundef %3) #8
  br label %84

21:                                               ; preds = %9
  %22 = getelementptr inbounds nuw i8, ptr %5, i64 24
  %23 = load i32, ptr %22, align 8, !tbaa !18
  %24 = icmp slt i32 %23, 1
  br i1 %24, label %84, label %25

25:                                               ; preds = %21
  %26 = tail call i64 @BIO_ctrl(ptr noundef nonnull %6, i32 noundef 2, i64 noundef %2, ptr noundef %3) #8
  br label %84

27:                                               ; preds = %9
  %28 = load i32, ptr %5, align 8, !tbaa !10
  %29 = getelementptr inbounds nuw i8, ptr %5, i64 4
  %30 = load i32, ptr %29, align 4, !tbaa !11
  %.not91 = icmp slt i32 %28, %30
  br i1 %.not91, label %31, label %32

31:                                               ; preds = %27
  tail call void @OPENSSL_die(ptr noundef nonnull @.str.5, ptr noundef nonnull @.str.3, i32 noundef 460) #9
  unreachable

32:                                               ; preds = %27
  %33 = icmp eq i32 %28, %30
  br i1 %33, label %34, label %41

34:                                               ; preds = %32
  %35 = getelementptr inbounds nuw i8, ptr %5, i64 16
  %36 = load i32, ptr %35, align 8, !tbaa !3
  %.not92 = icmp eq i32 %36, 0
  br i1 %.not92, label %.thread, label %37

37:                                               ; preds = %34
  %38 = getelementptr inbounds nuw i8, ptr %5, i64 32
  %39 = load ptr, ptr %38, align 8, !tbaa !13
  %40 = tail call i32 @EVP_ENCODE_CTX_num(ptr noundef %39) #8
  %.not93 = icmp eq i32 %40, 0
  br i1 %.not93, label %.thread, label %84

41:                                               ; preds = %32
  %42 = sub nsw i32 %28, %30
  %43 = zext nneg i32 %42 to i64
  %44 = icmp slt i32 %42, 1
  br i1 %44, label %.thread, label %84

.thread:                                          ; preds = %34, %37, %41
  %45 = tail call i64 @BIO_ctrl(ptr noundef nonnull %6, i32 noundef 13, i64 noundef %2, ptr noundef %3) #8
  br label %84

46:                                               ; preds = %9
  %47 = load i32, ptr %5, align 8, !tbaa !10
  %48 = getelementptr inbounds nuw i8, ptr %5, i64 4
  %49 = load i32, ptr %48, align 4, !tbaa !11
  %.not90 = icmp slt i32 %47, %49
  br i1 %.not90, label %50, label %51

50:                                               ; preds = %46
  tail call void @OPENSSL_die(ptr noundef nonnull @.str.5, ptr noundef nonnull @.str.3, i32 noundef 469) #9
  unreachable

51:                                               ; preds = %46
  %52 = sub nsw i32 %47, %49
  %53 = zext nneg i32 %52 to i64
  %54 = icmp slt i32 %52, 1
  br i1 %54, label %55, label %84

55:                                               ; preds = %51
  %56 = tail call i64 @BIO_ctrl(ptr noundef nonnull %6, i32 noundef 10, i64 noundef %2, ptr noundef %3) #8
  br label %84

.backedge:                                        ; preds = %.backedge.backedge, %.preheader
  %57 = load i32, ptr %5, align 8, !tbaa !10
  %58 = load i32, ptr %10, align 4, !tbaa !11
  %.not = icmp eq i32 %57, %58
  br i1 %.not, label %64, label %59

59:                                               ; preds = %.backedge
  %60 = tail call i32 @b64_write(ptr noundef %0, ptr noundef null, i32 noundef 0)
  %61 = icmp slt i32 %60, 0
  br i1 %61, label %62, label %.backedge.backedge

.backedge.backedge:                               ; preds = %59, %69, %76
  br label %.backedge, !llvm.loop !27

62:                                               ; preds = %59
  %63 = sext i32 %60 to i64
  br label %84

64:                                               ; preds = %.backedge
  %65 = tail call i32 @BIO_test_flags(ptr noundef %0, i32 noundef -1) #8
  %66 = and i32 %65, 256
  %.not86 = icmp eq i32 %66, 0
  br i1 %.not86, label %71, label %67

67:                                               ; preds = %64
  %68 = load i32, ptr %11, align 8, !tbaa !12
  %.not89 = icmp eq i32 %68, 0
  br i1 %.not89, label %78, label %69

69:                                               ; preds = %67
  %70 = tail call i32 @EVP_EncodeBlock(ptr noundef nonnull %12, ptr noundef nonnull %13, i32 noundef %68) #8
  store i32 %70, ptr %5, align 8, !tbaa !10
  store i32 0, ptr %10, align 4, !tbaa !11
  store i32 0, ptr %11, align 8, !tbaa !12
  br label %.backedge.backedge

71:                                               ; preds = %64
  %72 = load i32, ptr %14, align 8, !tbaa !3
  %.not87 = icmp eq i32 %72, 0
  br i1 %.not87, label %78, label %73

73:                                               ; preds = %71
  %74 = load ptr, ptr %15, align 8, !tbaa !13
  %75 = tail call i32 @EVP_ENCODE_CTX_num(ptr noundef %74) #8
  %.not88 = icmp eq i32 %75, 0
  br i1 %.not88, label %78, label %76

76:                                               ; preds = %73
  store i32 0, ptr %10, align 4, !tbaa !11
  %77 = load ptr, ptr %15, align 8, !tbaa !13
  tail call void @EVP_EncodeFinal(ptr noundef %77, ptr noundef nonnull %12, ptr noundef nonnull %5) #8
  br label %.backedge.backedge

78:                                               ; preds = %71, %73, %67
  %79 = tail call i64 @BIO_ctrl(ptr noundef %6, i32 noundef 11, i64 noundef %2, ptr noundef %3) #8
  tail call void @BIO_copy_next_retry(ptr noundef %0) #8
  br label %84

80:                                               ; preds = %9
  tail call void @BIO_clear_flags(ptr noundef %0, i32 noundef 15) #8
  %81 = tail call i64 @BIO_ctrl(ptr noundef nonnull %6, i32 noundef 101, i64 noundef %2, ptr noundef %3) #8
  tail call void @BIO_copy_next_retry(ptr noundef %0) #8
  br label %84

82:                                               ; preds = %9
  %83 = tail call i64 @BIO_ctrl(ptr noundef nonnull %6, i32 noundef %1, i64 noundef %2, ptr noundef %3) #8
  br label %84

84:                                               ; preds = %9, %16, %78, %80, %82, %25, %41, %.thread, %55, %51, %21, %37, %4, %62
  %.0 = phi i64 [ %63, %62 ], [ 0, %4 ], [ %83, %82 ], [ 1, %9 ], [ %81, %80 ], [ %79, %78 ], [ %56, %55 ], [ %53, %51 ], [ %45, %.thread ], [ %43, %41 ], [ %26, %25 ], [ %20, %16 ], [ 1, %21 ], [ 1, %37 ]
  ret i64 %.0
}